(iUVDeluxe.uistates
UiStates
p0
(dp1
S'collapseFrame2'
p2
I00
sS'collapseFrame3'
p3
I01
sS'collapseFrame0'
p4
I00
sS'collapseFrame1'
p5
I00
sS'collapseFrame6'
p6
I01
sS'collapseFrame7'
p7
I01
sS'collapseFrame4'
p8
I01
sS'collapseFrame5'
p9
I01
sS'collapseFrame8'
p10
I01
sS'matchDist'
p11
F0.05
sS'version'
p12
I120
sS'retainCS'
p13
I01
sS'snapPath'
p14
VC:/Users/xgits/Documents/maya/projects/default/
p15
sS'detectTextureSize'
p16
I01
sS'widthHeight'
p17
(lp18
L1150L
aL700L
asb.